; Function Attrs: nounwind uwtable
define hidden zeroext i1 @SDL_GetRectUnion_REAL(ptr noundef readonly captures(address_is_null) %0, ptr noundef readonly captures(address_is_null) %1, ptr noundef writeonly captures(address_is_null) %2) local_unnamed_addr #0 {
  %.not = icmp eq ptr %0, null
  br i1 %.not, label %4, label %6

4:                                                ; preds = %3
  %5 = tail call zeroext i1 (ptr, ...) @SDL_SetError_REAL(ptr noundef nonnull @.str, ptr noundef nonnull @.str.6) #5
  br label %62

6:                                                ; preds = %3
  %.not61 = icmp eq ptr %1, null
  br i1 %.not61, label %7, label %9

7:                                                ; preds = %6
  %8 = tail call zeroext i1 (ptr, ...) @SDL_SetError_REAL(ptr noundef nonnull @.str, ptr noundef nonnull @.str.7) #5
  br label %62

9:                                                ; preds = %6
  %10 = load i32, ptr %0, align 4
  %11 = add i32 %10, -1073741823
  %or.cond.i = icmp ult i32 %11, -2147483646
  br i1 %or.cond.i, label %SDL_RectCanOverflow.exit.thread, label %12

12:                                               ; preds = %9
  %13 = getelementptr inbounds nuw i8, ptr %0, i64 4
  %14 = load i32, ptr %13, align 4
  %15 = add i32 %14, -1073741823
  %or.cond9.i = icmp ult i32 %15, -2147483646
  br i1 %or.cond9.i, label %SDL_RectCanOverflow.exit.thread, label %16

16:                                               ; preds = %12
  %17 = getelementptr inbounds nuw i8, ptr %0, i64 8
  %18 = load i32, ptr %17, align 4
  %19 = icmp sgt i32 %18, 1073741822
  br i1 %19, label %SDL_RectCanOverflow.exit.thread, label %SDL_RectCanOverflow.exit

SDL_RectCanOverflow.exit:                         ; preds = %16
  %20 = getelementptr inbounds nuw i8, ptr %0, i64 12
  %21 = load i32, ptr %20, align 4
  %22 = icmp sgt i32 %21, 1073741822
  br i1 %22, label %SDL_RectCanOverflow.exit.thread, label %23

23:                                               ; preds = %SDL_RectCanOverflow.exit
  %24 = load i32, ptr %1, align 4
  %25 = add i32 %24, -1073741823
  %or.cond.i65 = icmp ult i32 %25, -2147483646
  br i1 %or.cond.i65, label %SDL_RectCanOverflow.exit.thread, label %26

26:                                               ; preds = %23
  %27 = getelementptr inbounds nuw i8, ptr %1, i64 4
  %28 = load i32, ptr %27, align 4
  %29 = add i32 %28, -1073741823
  %or.cond9.i66 = icmp ult i32 %29, -2147483646
  br i1 %or.cond9.i66, label %SDL_RectCanOverflow.exit.thread, label %30

30:                                               ; preds = %26
  %31 = getelementptr inbounds nuw i8, ptr %1, i64 8
  %32 = load i32, ptr %31, align 4
  %33 = icmp sgt i32 %32, 1073741822
  br i1 %33, label %SDL_RectCanOverflow.exit.thread, label %SDL_RectCanOverflow.exit68

SDL_RectCanOverflow.exit68:                       ; preds = %30
  %34 = getelementptr inbounds nuw i8, ptr %1, i64 12
  %35 = load i32, ptr %34, align 4
  %36 = icmp sgt i32 %35, 1073741822
  br i1 %36, label %SDL_RectCanOverflow.exit.thread, label %38

SDL_RectCanOverflow.exit.thread:                  ; preds = %23, %26, %30, %9, %12, %16, %SDL_RectCanOverflow.exit68, %SDL_RectCanOverflow.exit
  %37 = tail call zeroext i1 (ptr, ...) @SDL_SetError_REAL(ptr noundef nonnull @.str.8) #5
  br label %62

38:                                               ; preds = %SDL_RectCanOverflow.exit68
  %.not62 = icmp eq ptr %2, null
  br i1 %.not62, label %39, label %41

39:                                               ; preds = %38
  %40 = tail call zeroext i1 (ptr, ...) @SDL_SetError_REAL(ptr noundef nonnull @.str, ptr noundef nonnull @.str.9) #5
  br label %62

41:                                               ; preds = %38
  %42 = icmp slt i32 %18, 1
  %43 = icmp slt i32 %21, 1
  %or.cond = or i1 %42, %43
  %44 = icmp slt i32 %32, 1
  %45 = icmp slt i32 %35, 1
  %or.cond71 = or i1 %44, %45
  br i1 %or.cond, label %SDL_RectEmpty.exit64.thread, label %47

SDL_RectEmpty.exit64.thread:                      ; preds = %41
  br i1 %or.cond71, label %SDL_RectEmpty.exit63.thread, label %46

SDL_RectEmpty.exit63.thread:                      ; preds = %SDL_RectEmpty.exit64.thread
  tail call void @llvm.memset.p0.i64(ptr noundef nonnull align 4 dereferenceable(16) %2, i8 0, i64 16, i1 false)
  br label %62

46:                                               ; preds = %SDL_RectEmpty.exit64.thread
  tail call void @llvm.memcpy.p0.p0.i64(ptr noundef nonnull align 4 dereferenceable(16) %2, ptr noundef nonnull align 4 dereferenceable(16) %1, i64 16, i1 false)
  br label %62

47:                                               ; preds = %41
  br i1 %or.cond71, label %SDL_RectEmpty.exit.thread, label %48

SDL_RectEmpty.exit.thread:                        ; preds = %47
  tail call void @llvm.memcpy.p0.p0.i64(ptr noundef nonnull align 4 dereferenceable(16) %2, ptr noundef nonnull align 4 dereferenceable(16) %0, i64 16, i1 false)
  br label %62

48:                                               ; preds = %47
  %49 = add nsw i32 %18, %10
  %50 = add nsw i32 %32, %24
  %spec.select = tail call i32 @llvm.smin.i32(i32 %24, i32 %10)
  store i32 %spec.select, ptr %2, align 4
  %.0 = tail call i32 @llvm.smax.i32(i32 %50, i32 %49)
  %51 = sub nsw i32 %.0, %spec.select
  %52 = getelementptr inbounds nuw i8, ptr %2, i64 8
  store i32 %51, ptr %52, align 4
  %53 = load i32, ptr %13, align 4
  %54 = load i32, ptr %20, align 4
  %55 = add nsw i32 %54, %53
  %56 = load i32, ptr %27, align 4
  %57 = load i32, ptr %34, align 4
  %58 = add nsw i32 %57, %56
  %.148 = tail call i32 @llvm.smin.i32(i32 %56, i32 %53)
  %59 = getelementptr inbounds nuw i8, ptr %2, i64 4
  store i32 %.148, ptr %59, align 4
  %.1 = tail call i32 @llvm.smax.i32(i32 %58, i32 %55)
  %60 = sub nsw i32 %.1, %.148
  %61 = getelementptr inbounds nuw i8, ptr %2, i64 12
  store i32 %60, ptr %61, align 4
  br label %62

62:                                               ; preds = %SDL_RectEmpty.exit63.thread, %46, %48, %SDL_RectEmpty.exit.thread, %39, %SDL_RectCanOverflow.exit.thread, %7, %4
  %.049 = phi i1 [ %37, %SDL_RectCanOverflow.exit.thread ], [ true, %SDL_RectEmpty.exit.thread ], [ true, %48 ], [ %40, %39 ], [ %8, %7 ], [ %5, %4 ], [ true, %46 ], [ true, %SDL_RectEmpty.exit63.thread ]
  ret i1 %.049
}